target datalayout = "e-m:e-p270:32:32-p271:32:32-p272:64:64-i64:64-i128:128-f80:128-n8:16:32:64-S128"
target triple = "x86_64-pc-linux-gnu"

%struct.redisServer = type { i32, i64, ptr, ptr, ptr, i32, i32, i32, i32, i32, ptr, ptr, ptr, ptr, ptr, i32, i32, i32, i32, i64, i32, i32, i32, i32, ptr, i32, i32, [41 x i8], i32, i64, i32, i32, i32, ptr, ptr, i32, i32, i64, ptr, ptr, ptr, ptr, [2 x i32], i32, i32, i32, i32, i32, i32, [16 x ptr], i32, ptr, ptr, i32, [8 x %struct.connListener], i32, %struct.connListener, ptr, ptr, ptr, ptr, ptr, ptr, ptr, ptr, ptr, ptr, i32, ptr, i32, ptr, [3 x %struct.pause_event], [256 x i8], ptr, i64, i32, i32, [128 x i32], i32, i32, i64, i32, i32, i32, i32, i32, i64, i64, i64, i64, i64, i64, i64, i64, i64, i64, double, i64, i64, i64, i64, i64, i64, i64, i64, i64, i64, i64, i64, i64, i64, i64, i64, i64, i64, i64, i64, i64, double, i64, i64, i64, i64, i64, ptr, i64, i64, i64, %struct.malloc_stats, i64, i64, i64, i64, i64, i64, i64, i64, i64, i64, i64, i64, double, [4 x i64], i64, i64, i64, i64, [128 x i64], [128 x i64], i64, i64, [7 x %struct.anon], i64, i64, i64, i64, i64, i64, [4 x %struct.durationStats], i32, i32, i32, i32, i32, i32, i32, i32, i32, i32, i32, i32, i64, i32, i32, i32, i32, i64, i64, i32, i32, i32, i32, i32, ptr, [3 x %struct.clientBufferLimitsConfig], i32, i32, i32, ptr, i32, i32, i32, i32, i32, i32, ptr, ptr, i32, i32, i64, i64, i64, i64, i64, i32, i32, ptr, i32, i32, i64, i64, i64, i64, i64, i32, i32, i64, i32, i32, i32, i32, i32, i32, i32, i32, ptr, i32, i64, i64, i64, i64, i32, ptr, i32, ptr, i32, i32, i32, i64, i64, i64, i64, i32, i32, i32, i32, i32, i32, ptr, i32, i32, ptr, i32, i32, i32, [2 x i32], i32, %struct.redisOpArray, i32, ptr, i32, ptr, i32, i32, i32, i32, i32, i32, i32, [41 x i8], [41 x i8], i64, i64, i64, i64, i32, i32, ptr, i64, i64, %struct.replDataBuf, i64, i64, i32, i32, i32, i32, i32, i32, i32, i32, i32, i64, ptr, i64, ptr, ptr, ptr, i32, i32, ptr, ptr, i32, i32, i32, i64, i64, i64, i64, ptr, ptr, i32, ptr, i64, i32, i32, i32, i64, i32, i32, i32, i32, ptr, i32, i32, [41 x i8], i64, i32, ptr, i32, i32, i64, i64, i32, i32, i32, i32, i32, i64, [3 x i32], i32, i32, i32, [10 x i32], ptr, ptr, i32, i64, ptr, ptr, i32, i32, i32, i32, i64, i64, i64, i64, i64, i64, i64, i64, i64, i64, i32, i32, i64, i64, i32, i64, i64, i64, i64, i64, ptr, ptr, i32, ptr, i32, i32, i32, i32, i64, i64, ptr, ptr, i32, i32, i32, i32, i32, ptr, ptr, ptr, i32, i32, i32, i32, i32, i32, i32, i64, i32, i32, i64, i32, i32, i32, i32, i32, i32, i32, i64, ptr, ptr, i64, ptr, i32, %struct.aclInfo, i32, i64, i32, i32, i32, %struct.redisTLSContextConfig, ptr, ptr, ptr, ptr, ptr, i64, i32, ptr, i32, i32, i32, i64, i32, ptr }
%struct.connListener = type { [16 x i32], i32, ptr, i32, i32, ptr, ptr }
%struct.pause_event = type { i32, i64 }
%struct.malloc_stats = type { i64, i64, i64, i64, i64, i64, i64, i64, i64, i64, i64 }
%struct.anon = type { i64, i64, [16 x i64], i32 }
%struct.durationStats = type { i64, i64, i64 }
%struct.clientBufferLimitsConfig = type { i64, i64, i64 }
%struct.redisOpArray = type { ptr, i32, i32 }
%struct.replDataBuf = type { ptr, i64, i64, i64, i64 }
%struct.aclInfo = type { i64, i64, i64, i64 }
%struct.redisTLSContextConfig = type { ptr, ptr, ptr, ptr, ptr, ptr, ptr, ptr, ptr, ptr, ptr, ptr, i32, i32, i32, i32 }
%struct.client = type { i64, i64, ptr, i8, i8, i8, i8, i32, ptr, ptr, ptr, ptr, ptr, i64, i64, i32, ptr, i32, i32, ptr, i64, ptr, ptr, ptr, ptr, ptr, i32, i32, i64, ptr, i64, ptr, i64, i64, i64, i32, ptr, i64, i64, i32, i32, i32, i32, i64, i64, ptr, i64, i64, i64, i64, i64, i64, i64, i64, [41 x i8], i32, ptr, i32, i32, i64, %struct.multiState, %struct.blockingState, i64, ptr, ptr, ptr, ptr, ptr, ptr, ptr, ptr, ptr, ptr, ptr, ptr, ptr, ptr, i64, ptr, i64, i32, ptr, ptr, ptr, i64, %struct.listNode, i64, i64, i32, i64, ptr }
%struct.multiState = type { ptr, i32, i32, i32, i64, i32 }
%struct.blockingState = type { i32, i64, i32, ptr, i32, i32, i64, ptr, ptr, i64 }
%struct.listNode = type { ptr, ptr, ptr }
%struct.dict = type { ptr, [2 x ptr], [2 x i64], i64, i16, [2 x i8], i16, [0 x ptr] }

@server = external global %struct.redisServer, align 8
@.str.1 = private unnamed_addr constant [9 x i8] c"pubsub.c\00", align 1
@.str.3 = private unnamed_addr constant [11 x i8] c"de != NULL\00", align 1
@.str.4 = private unnamed_addr constant [34 x i8] c"dictDelete(clients, c) == DICT_OK\00", align 1

; Function Attrs: nounwind uwtable
define dso_local i32 @pubsubUnsubscribePattern(ptr noundef %0, ptr noundef %1, i32 noundef %2) #0 {
  %4 = alloca ptr, align 8
  %5 = alloca ptr, align 8
  %6 = alloca i32, align 4
  %7 = alloca ptr, align 8
  %8 = alloca ptr, align 8
  %9 = alloca i32, align 4
  store ptr %0, ptr %4, align 8, !tbaa !5
  store ptr %1, ptr %5, align 8, !tbaa !33
  store i32 %2, ptr %6, align 4, !tbaa !69
  call void @llvm.lifetime.start.p0(i64 8, ptr %7) #8
  call void @llvm.lifetime.start.p0(i64 8, ptr %8) #8
  call void @llvm.lifetime.start.p0(i64 4, ptr %9) #8
  store i32 0, ptr %9, align 4, !tbaa !69
  %10 = load ptr, ptr %5, align 8, !tbaa !33
  call void @incrRefCount(ptr noundef %10)
  %11 = load ptr, ptr %4, align 8, !tbaa !5
  %12 = getelementptr inbounds nuw %struct.client, ptr %11, i32 0, i32 65
  %13 = load ptr, ptr %12, align 8, !tbaa !31
  %14 = load ptr, ptr %5, align 8, !tbaa !33
  %15 = call i32 @dictDelete(ptr noundef %13, ptr noundef %14)
  %16 = icmp eq i32 %15, 0
  br i1 %16, label %17, label %66

17:                                               ; preds = %3
  store i32 1, ptr %9, align 4, !tbaa !69
  %18 = load ptr, ptr getelementptr inbounds nuw (%struct.redisServer, ptr @server, i32 0, i32 375), align 8, !tbaa !65
  %19 = load ptr, ptr %5, align 8, !tbaa !33
  %20 = call ptr @dictFind(ptr noundef %18, ptr noundef %19)
  store ptr %20, ptr %7, align 8, !tbaa !78
  %21 = load ptr, ptr %7, align 8, !tbaa !78
  %22 = icmp ne ptr %21, null
  %23 = xor i1 %22, true
  %24 = xor i1 %23, true
  %25 = zext i1 %24 to i32
  %26 = sext i32 %25 to i64
  %27 = call i64 @llvm.expect.i64(i64 %26, i64 1)
  %28 = icmp ne i64 %27, 0
  br i1 %28, label %29, label %30

29:                                               ; preds = %17
  br label %33

30:                                               ; preds = %17
  %31 = load ptr, ptr %4, align 8, !tbaa !5
  call void @_serverAssertWithInfo(ptr noundef %31, ptr noundef null, ptr noundef @.str.3, ptr noundef @.str.1, i32 noundef 376)
  call void @abort() #9
  unreachable

32:                                               ; No predecessors!
  br label %33

33:                                               ; preds = %32, %29
  %34 = load ptr, ptr %7, align 8, !tbaa !78
  %35 = call ptr @dictGetVal(ptr noundef %34)
  store ptr %35, ptr %8, align 8, !tbaa !68
  %36 = load ptr, ptr %8, align 8, !tbaa !68
  %37 = load ptr, ptr %4, align 8, !tbaa !5
  %38 = call i32 @dictDelete(ptr noundef %36, ptr noundef %37)
  %39 = icmp eq i32 %38, 0
  %40 = xor i1 %39, true
  %41 = xor i1 %40, true
  %42 = zext i1 %41 to i32
  %43 = sext i32 %42 to i64
  %44 = call i64 @llvm.expect.i64(i64 %43, i64 1)
  %45 = icmp ne i64 %44, 0
  br i1 %45, label %46, label %47

46:                                               ; preds = %33
  br label %50

47:                                               ; preds = %33
  %48 = load ptr, ptr %4, align 8, !tbaa !5
  call void @_serverAssertWithInfo(ptr noundef %48, ptr noundef null, ptr noundef @.str.4, ptr noundef @.str.1, i32 noundef 378)
  call void @abort() #9
  unreachable

49:                                               ; No predecessors!
  br label %50

50:                                               ; preds = %49, %46
  %51 = load ptr, ptr %8, align 8, !tbaa !68
  %52 = getelementptr inbounds nuw %struct.dict, ptr %51, i32 0, i32 2
  %53 = getelementptr inbounds [2 x i64], ptr %52, i64 0, i64 0
  %54 = load i64, ptr %53, align 8, !tbaa !30
  %55 = load ptr, ptr %8, align 8, !tbaa !68
  %56 = getelementptr inbounds nuw %struct.dict, ptr %55, i32 0, i32 2
  %57 = getelementptr inbounds [2 x i64], ptr %56, i64 0, i64 1
  %58 = load i64, ptr %57, align 8, !tbaa !30
  %59 = add i64 %54, %58
  %60 = icmp eq i64 %59, 0
  br i1 %60, label %61, label %65

61:                                               ; preds = %50
  %62 = load ptr, ptr getelementptr inbounds nuw (%struct.redisServer, ptr @server, i32 0, i32 375), align 8, !tbaa !65
  %63 = load ptr, ptr %5, align 8, !tbaa !33
  %64 = call i32 @dictDelete(ptr noundef %62, ptr noundef %63)
  br label %65

65:                                               ; preds = %61, %50
  br label %66

66:                                               ; preds = %65, %3
  %67 = load i32, ptr %6, align 4, !tbaa !69
  %68 = icmp ne i32 %67, 0
  br i1 %68, label %69, label %72

69:                                               ; preds = %66
  %70 = load ptr, ptr %4, align 8, !tbaa !5
  %71 = load ptr, ptr %5, align 8, !tbaa !33
  call void @addReplyPubsubPatUnsubscribed(ptr noundef %70, ptr noundef %71)
  br label %72

72:                                               ; preds = %69, %66
  %73 = load ptr, ptr %5, align 8, !tbaa !33
  call void @decrRefCount(ptr noundef %73)
  %74 = load i32, ptr %9, align 4, !tbaa !69
  call void @llvm.lifetime.end.p0(i64 4, ptr %9) #8
  call void @llvm.lifetime.end.p0(i64 8, ptr %8) #8
  call void @llvm.lifetime.end.p0(i64 8, ptr %7) #8
  ret i32 %74
}