; Function Attrs: nounwind uwtable
define dso_local range(i32 0, 2) i32 @pubsubUnsubscribePattern(ptr noundef %0, ptr noundef %1, i32 noundef %2) local_unnamed_addr #2 {
  tail call void @incrRefCount(ptr noundef %1) #9
  %4 = getelementptr inbounds nuw i8, ptr %0, i64 576
  %5 = load ptr, ptr %4, align 8, !tbaa !29
  %6 = tail call i32 @dictDelete(ptr noundef %5, ptr noundef %1) #9
  %7 = icmp eq i32 %6, 0
  br i1 %7, label %8, label %27

8:                                                ; preds = %3
  %9 = load ptr, ptr getelementptr inbounds nuw (i8, ptr @server, i64 7856), align 8, !tbaa !64
  %10 = tail call ptr @dictFind(ptr noundef %9, ptr noundef %1) #9
  %.not = icmp eq ptr %10, null
  br i1 %.not, label %11, label %12, !prof !74

11:                                               ; preds = %8
  tail call void @_serverAssertWithInfo(ptr noundef nonnull %0, ptr noundef null, ptr noundef nonnull @.str.3, ptr noundef nonnull @.str.1, i32 noundef 376) #9
  tail call void @abort() #10
  unreachable

12:                                               ; preds = %8
  %13 = tail call ptr @dictGetVal(ptr noundef nonnull %10) #9
  %14 = tail call i32 @dictDelete(ptr noundef %13, ptr noundef nonnull %0) #9
  %15 = icmp eq i32 %14, 0
  br i1 %15, label %17, label %16, !prof !75

16:                                               ; preds = %12
  tail call void @_serverAssertWithInfo(ptr noundef nonnull %0, ptr noundef null, ptr noundef nonnull @.str.4, ptr noundef nonnull @.str.1, i32 noundef 378) #9
  tail call void @abort() #10
  unreachable

17:                                               ; preds = %12
  %18 = getelementptr inbounds nuw i8, ptr %13, i64 24
  %19 = load i64, ptr %18, align 8, !tbaa !28
  %20 = getelementptr inbounds nuw i8, ptr %13, i64 32
  %21 = load i64, ptr %20, align 8, !tbaa !28
  %22 = sub i64 0, %21
  %23 = icmp eq i64 %19, %22
  br i1 %23, label %24, label %27

24:                                               ; preds = %17
  %25 = load ptr, ptr getelementptr inbounds nuw (i8, ptr @server, i64 7856), align 8, !tbaa !64
  %26 = tail call i32 @dictDelete(ptr noundef %25, ptr noundef %1) #9
  br label %27

27:                                               ; preds = %17, %24, %3
  %.0 = phi i32 [ 1, %24 ], [ 1, %17 ], [ 0, %3 ]
  %.not18 = icmp eq i32 %2, 0
  br i1 %.not18, label %29, label %28

28:                                               ; preds = %27
  tail call void @addReplyPubsubPatUnsubscribed(ptr noundef nonnull %0, ptr noundef %1)
  br label %29

29:                                               ; preds = %28, %27
  tail call void @decrRefCount(ptr noundef %1) #9
  ret i32 %.0
}